{
   <insert_a_suppression_name_here>
   Memcheck:Leak
   match-leak-kinds: definite
   fun:calloc
   fun:_ZN4objc8DenseMapIP10objc_classS2_NS_17DenseMapValueInfoIS2_EENS_12DenseMapInfoIS2_EENS_6detail12DenseMapPairIS2_S2_EEE4growEj
   fun:_ZL16addRemappedClassP10objc_classS0_
   fun:objc_initializeClassPair
   obj:/System/Library/Frameworks/CoreFoundation.framework/Versions/A/CoreFoundation
   fun:_dispatch_client_callout
   fun:_dispatch_once_callout
   obj:/System/Library/Frameworks/CoreFoundation.framework/Versions/A/CoreFoundation
   fun:objc_msgLookup_fpret
   fun:_ZN4dyldL12notifySingleE17dyld_image_statesPK11ImageLoaderPNS1_21InitializerTimingListE
   fun:_ZN11ImageLoader23recursiveInitializationERKNS_11LinkContextEjPKcRNS_21InitializerTimingListERNS_15UninitedUpwardsE
   fun:_ZN11ImageLoader23recursiveInitializationERKNS_11LinkContextEjPKcRNS_21InitializerTimingListERNS_15UninitedUpwardsE
}
{
   <insert_a_suppression_name_here>
   Memcheck:Cond
   fun:ne_session_agent_get_advisory
   fun:__nw_path_snapshot_fallback_block_invoke
   fun:_xpc_dictionary_apply_apply
   fun:_xpc_dictionary_apply_node_f
   fun:xpc_dictionary_apply
   fun:nw_path_snapshot_fallback
   fun:nw_path_snapshot_path
   fun:nw_path_evaluator_evaluate
   fun:nw_path_create_evaluator_for_endpoint
   fun:nw_nat64_v4_address_requires_synthesis
   fun:_gai_nat64_v4_address_requires_synthesis
   fun:_gai_nat64_second_pass
}
{
   <insert_a_suppression_name_here>
   Memcheck:Leak
   match-leak-kinds: definite
   fun:calloc
   fun:_ZL13getClass_implPKc
   fun:_ZN11objc_object27sidetable_clearDeallocatingEv
   fun:_ZL19_finishInitializingP10objc_classS0_
   fun:lookUpImpOrForward
   obj:/System/Library/Frameworks/CoreFoundation.framework/Versions/A/CoreFoundation
   fun:_ZN16ImageLoaderMachO11doImageInitERKN11ImageLoader11LinkContextE
   fun:_ZN16ImageLoaderMachO16doInitializationERKN11ImageLoader11LinkContextE
   fun:_ZN11ImageLoader23recursiveInitializationERKNS_11LinkContextEjPKcRNS_21InitializerTimingListERNS_15UninitedUpwardsE
   fun:_ZN11ImageLoader23recursiveInitializationERKNS_11LinkContextEjPKcRNS_21InitializerTimingListERNS_15UninitedUpwardsE
   fun:_ZN11ImageLoader23recursiveInitializationERKNS_11LinkContextEjPKcRNS_21InitializerTimingListERNS_15UninitedUpwardsE
   fun:_ZN11ImageLoader23recursiveInitializationERKNS_11LinkContextEjPKcRNS_21InitializerTimingListERNS_15UninitedUpwardsE
}
{
   <insert_a_suppression_name_here>
   Memcheck:Leak
   match-leak-kinds: possible
   fun:calloc
   fun:_ZN4objc8DenseMapIP10objc_classS2_NS_17DenseMapValueInfoIS2_EENS_12DenseMapInfoIS2_EENS_6detail12DenseMapPairIS2_S2_EEE4growEj
   fun:_ZL16addRemappedClassP10objc_classS0_
   fun:_Z15allocateBucketsj
   fun:lookUpImpOrForward
   fun:__nw_context_copy_implicit_context_block_invoke
   fun:_dispatch_client_callout
   fun:_dispatch_once_callout
   fun:-[NWConcrete_nw_parameters initWithStack:]
   fun:nw_path_create_evaluator_for_endpoint
   fun:nw_nat64_v4_address_requires_synthesis
   fun:_gai_nat64_v4_address_requires_synthesis
}
{
   <insert_a_suppression_name_here>
   Memcheck:Leak
   match-leak-kinds: possible
   fun:calloc
   fun:_ZN4objc8DenseMapIP10objc_classS2_NS_17DenseMapValueInfoIS2_EENS_12DenseMapInfoIS2_EENS_6detail12DenseMapPairIS2_S2_EEE4growEj
   fun:_ZL16addRemappedClassP10objc_classS0_
   fun:_ZL24realizeClassWithoutSwiftP10objc_classS0_
   fun:-[NSObject dealloc]
   fun:lookUpImpOrForward
   fun:_xpc_payload_alloc
   fun:_xpc_payload_create_from_mach_msg
   fun:xpc_receive_mach_msg
   fun:_xpc_pipe_routine
   fun:xpc_pipe_routine_with_flags
   fun:_xpc_interface_routine
}
{
   <insert_a_suppression_name_here>
   Memcheck:Cond
   fun:xpc_data_create
   fun:xpc_dictionary_set_data
   fun:nw_network_agent_copy_dictionary_from_necp
   fun:nw_path_copy_dictionary_for_agent_with_generation
   fun:nw_path_snapshot_path
   fun:nw_path_evaluator_evaluate
   fun:nw_path_create_evaluator_for_endpoint
   fun:nw_nat64_v4_address_requires_synthesis
   fun:_gai_nat64_v4_address_requires_synthesis
   fun:_gai_nat64_second_pass
   fun:si_addrinfo
   fun:_getaddrinfo_internal
}
{
   <insert_a_suppression_name_here>
   Memcheck:Cond
   fun:nw_path_copy_interface_with_generation
   fun:nw_path_snapshot_path
   fun:nw_path_evaluator_evaluate
   fun:nw_path_create_evaluator_for_endpoint
   fun:nw_nat64_v4_address_requires_synthesis
   fun:_gai_nat64_v4_address_requires_synthesis
   fun:_gai_nat64_second_pass
   fun:si_addrinfo
   fun:_getaddrinfo_internal
   fun:getaddrinfo
   fun:Curl_getaddrinfo_ex
   fun:getaddrinfo_thread
}
{
   <insert_a_suppression_name_here>
   Memcheck:Cond
   fun:__nw_path_agents_are_satisfied_update_reason_block_invoke
   fun:_xpc_dictionary_apply_apply
   fun:_xpc_dictionary_apply_node_f
   fun:xpc_dictionary_apply
   fun:nw_path_agents_are_satisfied_update_reason
   fun:nw_path_snapshot_path
   fun:nw_path_evaluator_evaluate
   fun:nw_path_create_evaluator_for_endpoint
   fun:nw_nat64_v4_address_requires_synthesis
   fun:_gai_nat64_v4_address_requires_synthesis
   fun:_gai_nat64_second_pass
   fun:si_addrinfo
}
{
   <insert_a_suppression_name_here>
   Memcheck:Leak
   match-leak-kinds: possible
   fun:malloc
   fun:_ZL24realizeClassWithoutSwiftP10objc_classS0_
   fun:_ZL32adjustCustomFlagsForMethodChangeP10objc_classP8method_t
   fun:property_copyAttributeValue
   fun:_ZL10free_classP10objc_class
   fun:objc_msgLookup
   fun:_ZN4dyldL12notifySingleE17dyld_image_statesPK11ImageLoaderPNS1_21InitializerTimingListE
   fun:_ZN11ImageLoader23recursiveInitializationERKNS_11LinkContextEjPKcRNS_21InitializerTimingListERNS_15UninitedUpwardsE
   fun:_ZN11ImageLoader19processInitializersERKNS_11LinkContextEjRNS_21InitializerTimingListERNS_15UninitedUpwardsE
   fun:_ZN11ImageLoader19processInitializersERKNS_11LinkContextEjRNS_21InitializerTimingListERNS_15UninitedUpwardsE
   fun:_ZN11ImageLoader15runInitializersERKNS_11LinkContextERNS_21InitializerTimingListE
   fun:_ZN4dyld24initializeMainExecutableEv
}
{
   <insert_a_suppression_name_here>
   Memcheck:Cond
   fun:dispatch_data_get_flattened_bytes_4libxpc
   fun:_xpc_data_map
   fun:xpc_data_get_bytes_ptr
   fun:xpc_dictionary_get_data
   fun:nw_path_snapshot_path
   fun:nw_path_evaluator_evaluate
   fun:nw_path_create_evaluator_for_endpoint
   fun:nw_nat64_v4_address_requires_synthesis
   fun:_gai_nat64_v4_address_requires_synthesis
   fun:_gai_nat64_second_pass
   fun:si_addrinfo
   fun:_getaddrinfo_internal
}
{
   <insert_a_suppression_name_here>
   Memcheck:Leak
   match-leak-kinds: definite
   fun:calloc
   fun:_ZN4objc8DenseMapIP10objc_classS2_NS_17DenseMapValueInfoIS2_EENS_12DenseMapInfoIS2_EENS_6detail12DenseMapPairIS2_S2_EEE4growEj
   fun:_ZN10objc_class11mangledNameEv
   fun:_ZNK8objc_opt17objc_stringhash_t8getIndexEPKc
   fun:unmap_image
   fun:_ZN4dyldL18notifyBatchPartialE17dyld_image_statesbPFPKcS0_jPK15dyld_image_infoEbb
   fun:_ZN4dyld21registerObjCNotifiersEPFvjPKPKcPKPK11mach_headerEPFvS1_S6_ESC_
   fun:_dyld_objc_notify_register
   fun:map_images_nolock
   fun:_os_object_init
   fun:libdispatch_init
   fun:libSystem_initializer
}
{
   <insert_a_suppression_name_here>
   Memcheck:Leak
   match-leak-kinds: definite
   fun:calloc
   fun:_ZN4objc8DenseMapIP10objc_classS2_NS_17DenseMapValueInfoIS2_EENS_12DenseMapInfoIS2_EENS_6detail12DenseMapPairIS2_S2_EEE4growEj
   fun:_ZL16addRemappedClassP10objc_classS0_
   fun:_Z15allocateBucketsj
   fun:lookUpImpOrForward
   fun:__CFMakeNSBlockClasses
   fun:-[NSThread init]
   fun:____NSThreads_block_invoke
   fun:_dispatch_client_callout
   fun:_dispatch_once_callout
   fun:_NSThreadGet0
   fun:_NSInitializePlatform
}
{
   <insert_a_suppression_name_here>
   Memcheck:Leak
   match-leak-kinds: possible
   fun:calloc
   fun:_ZL33realizeClassMaybeSwiftMaybeRelockP10objc_classR8mutex_ttILb0EEb
   fun:weak_register_no_lock
   fun:_NSToDoAtProcessStart
   fun:_NSInitializePlatform
   fun:objc_msgLookup_fpret
   fun:_ZN4dyldL12notifySingleE17dyld_image_statesPK11ImageLoaderPNS1_21InitializerTimingListE
   fun:_ZN11ImageLoader23recursiveInitializationERKNS_11LinkContextEjPKcRNS_21InitializerTimingListERNS_15UninitedUpwardsE
   fun:_ZN11ImageLoader23recursiveInitializationERKNS_11LinkContextEjPKcRNS_21InitializerTimingListERNS_15UninitedUpwardsE
   fun:_ZN11ImageLoader23recursiveInitializationERKNS_11LinkContextEjPKcRNS_21InitializerTimingListERNS_15UninitedUpwardsE
   fun:_ZN11ImageLoader23recursiveInitializationERKNS_11LinkContextEjPKcRNS_21InitializerTimingListERNS_15UninitedUpwardsE
   fun:_ZN11ImageLoader23recursiveInitializationERKNS_11LinkContextEjPKcRNS_21InitializerTimingListERNS_15UninitedUpwardsE
}
{
   <insert_a_suppression_name_here>
   Memcheck:Leak
   match-leak-kinds: possible
   fun:calloc
   fun:_ZN4objc8DenseMapIP10objc_classS2_NS_17DenseMapValueInfoIS2_EENS_12DenseMapInfoIS2_EENS_6detail12DenseMapPairIS2_S2_EEE4growEj
   fun:_ZL16addRemappedClassP10objc_classS0_
   fun:_ZL24realizeClassWithoutSwiftP10objc_classS0_
   fun:-[NSObject dealloc]
   fun:lookUpImpOrForward
   fun:__nw_context_copy_implicit_context_block_invoke
   fun:_dispatch_client_callout
   fun:_dispatch_once_callout
   fun:-[NWConcrete_nw_parameters initWithStack:]
   fun:nw_path_create_evaluator_for_endpoint
   fun:nw_nat64_v4_address_requires_synthesis
}
{
   <insert_a_suppression_name_here>
   Memcheck:Leak
   match-leak-kinds: possible
   fun:malloc
   fun:_ZL24realizeClassWithoutSwiftP10objc_classS0_
   fun:_ZL32adjustCustomFlagsForMethodChangeP10objc_classP8method_t
   fun:_ZL32adjustCustomFlagsForMethodChangeP10objc_classP8method_t
   fun:_ZL16attachCategoriesP10objc_classPK21locstamped_category_tji
   fun:_ZN10objc_class11mangledNameEv
   fun:_ZN10objc_class11mangledNameEv
   fun:_ZL16addRemappedClassP10objc_classS0_
   fun:objc_initializeClassPair
   fun:_NSToDoAtProcessStart
   fun:_NSInitializePlatform
   fun:objc_msgLookup_fpret
}
{
   <insert_a_suppression_name_here>
   Memcheck:Leak
   match-leak-kinds: possible
   fun:calloc
   fun:_ZN4objc8DenseMapIP10objc_classS2_NS_17DenseMapValueInfoIS2_EENS_12DenseMapInfoIS2_EENS_6detail12DenseMapPairIS2_S2_EEE4growEj
   fun:_ZL16addRemappedClassP10objc_classS0_
   fun:_ZL24realizeClassWithoutSwiftP10objc_classS0_
   fun:-[NSObject dealloc]
   fun:lookUpImpOrForward
   fun:nw_path_create_evaluator_for_endpoint
   fun:nw_nat64_v4_address_requires_synthesis
   fun:_gai_nat64_v4_address_requires_synthesis
   fun:_gai_nat64_second_pass
   fun:si_addrinfo
   fun:_getaddrinfo_internal
}
{
   <insert_a_suppression_name_here>
   Memcheck:Leak
   match-leak-kinds: definite
   fun:malloc
   fun:__CFGetConverter
   fun:_dispatch_client_callout
   fun:_dispatch_once_callout
   fun:__CFGetConverter
   fun:__CFGetConverter
   fun:_CFProcessPath
   fun:CFRetain
   fun:____NSThreads_block_invoke
   fun:_dispatch_client_callout
   fun:_dispatch_once_callout
   fun:_NSThreadGet0
}
{
   <insert_a_suppression_name_here>
   Memcheck:Leak
   match-leak-kinds: possible
   fun:calloc
   fun:_notify_fork_child
   fun:_notify_fork_child
   fun:notify_register_check
   fun:_os_trace_prefs_and_mode_refresh_slow
   fun:_os_activity_create_addr
   fun:ds_user_byuid
   fun:si_user_byuid
   fun:search_item_bynumber
   fun:search_user_byuid
   fun:si_user_byuid
   fun:getpwuid_r
}
{
   <insert_a_suppression_name_here>
   Memcheck:Leak
   match-leak-kinds: definite
   fun:malloc_zone_malloc
   fun:_CFRuntimeCreateInstance
   fun:__CFStrHashEightBit2
   fun:__CFSearchStringROM
   obj:/System/Library/Frameworks/CoreFoundation.framework/Versions/A/CoreFoundation
   fun:_ZN16ImageLoaderMachO11doImageInitERKN11ImageLoader11LinkContextE
   fun:_ZN16ImageLoaderMachO16doInitializationERKN11ImageLoader11LinkContextE
   fun:_ZN11ImageLoader23recursiveInitializationERKNS_11LinkContextEjPKcRNS_21InitializerTimingListERNS_15UninitedUpwardsE
   fun:_ZN11ImageLoader23recursiveInitializationERKNS_11LinkContextEjPKcRNS_21InitializerTimingListERNS_15UninitedUpwardsE
   fun:_ZN11ImageLoader23recursiveInitializationERKNS_11LinkContextEjPKcRNS_21InitializerTimingListERNS_15UninitedUpwardsE
   fun:_ZN11ImageLoader23recursiveInitializationERKNS_11LinkContextEjPKcRNS_21InitializerTimingListERNS_15UninitedUpwardsE
   fun:_ZN11ImageLoader23recursiveInitializationERKNS_11LinkContextEjPKcRNS_21InitializerTimingListERNS_15UninitedUpwardsE
}
{
   <insert_a_suppression_name_here>
   Memcheck:Leak
   match-leak-kinds: definite
   fun:calloc
   fun:_ZN4objc8DenseMapIP10objc_classS2_NS_17DenseMapValueInfoIS2_EENS_12DenseMapInfoIS2_EENS_6detail12DenseMapPairIS2_S2_EEE4growEj
   fun:_ZL16addRemappedClassP10objc_classS0_
   fun:objc_initializeClassPair
   fun:____FoundationPresent_block_invoke
   obj:/System/Library/Frameworks/CoreFoundation.framework/Versions/A/CoreFoundation
   fun:_ZN16ImageLoaderMachO11doImageInitERKN11ImageLoader11LinkContextE
   fun:_ZN16ImageLoaderMachO16doInitializationERKN11ImageLoader11LinkContextE
   fun:_ZN11ImageLoader23recursiveInitializationERKNS_11LinkContextEjPKcRNS_21InitializerTimingListERNS_15UninitedUpwardsE
   fun:_ZN11ImageLoader23recursiveInitializationERKNS_11LinkContextEjPKcRNS_21InitializerTimingListERNS_15UninitedUpwardsE
   fun:_ZN11ImageLoader23recursiveInitializationERKNS_11LinkContextEjPKcRNS_21InitializerTimingListERNS_15UninitedUpwardsE
   fun:_ZN11ImageLoader23recursiveInitializationERKNS_11LinkContextEjPKcRNS_21InitializerTimingListERNS_15UninitedUpwardsE
}
{
   <insert_a_suppression_name_here>
   Memcheck:Leak
   match-leak-kinds: definite
   fun:calloc
   fun:_ZN4objc8DenseMapIP10objc_classS2_NS_17DenseMapValueInfoIS2_EENS_12DenseMapInfoIS2_EENS_6detail12DenseMapPairIS2_S2_EEE4growEj
   fun:_ZN10objc_class11mangledNameEv
   fun:_ZL16addRemappedClassP10objc_classS0_
   fun:objc_initializeClassPair
   fun:_NSToDoAtProcessStart
   fun:_NSInitializePlatform
   fun:objc_msgLookup_fpret
   fun:_ZN4dyldL12notifySingleE17dyld_image_statesPK11ImageLoaderPNS1_21InitializerTimingListE
   fun:_ZN11ImageLoader23recursiveInitializationERKNS_11LinkContextEjPKcRNS_21InitializerTimingListERNS_15UninitedUpwardsE
   fun:_ZN11ImageLoader23recursiveInitializationERKNS_11LinkContextEjPKcRNS_21InitializerTimingListERNS_15UninitedUpwardsE
   fun:_ZN11ImageLoader23recursiveInitializationERKNS_11LinkContextEjPKcRNS_21InitializerTimingListERNS_15UninitedUpwardsE
}
{
   <insert_a_suppression_name_here>
   Memcheck:Cond
   fun:_platform_strlcpy
   fun:__strlcpy_chk
   fun:nw_interface_create_from_necp
   fun:nw_path_copy_interface_with_generation
   fun:nw_path_snapshot_path
   fun:nw_path_evaluator_evaluate
   fun:nw_path_create_evaluator_for_endpoint
   fun:nw_nat64_v4_address_requires_synthesis
   fun:_gai_nat64_v4_address_requires_synthesis
   fun:_gai_nat64_second_pass
   fun:si_addrinfo
   fun:_getaddrinfo_internal
}
{
   <insert_a_suppression_name_here>
   Memcheck:Leak
   match-leak-kinds: possible
   fun:calloc
   fun:_notify_fork_child
   fun:_notify_fork_child
   fun:notify_register_check
   fun:si_inet_config
   fun:_mdns_search_ex
   fun:_mdns_search
   fun:mdns_addrinfo
   fun:search_addrinfo
   fun:si_addrinfo
   fun:_getaddrinfo_internal
   fun:getaddrinfo
}
{
   <insert_a_suppression_name_here>
   Memcheck:Cond
   fun:dispatch_data_create_alloc
   fun:xpc_data_create
   fun:xpc_dictionary_set_data
   fun:nw_network_agent_copy_dictionary_from_necp
   fun:nw_path_copy_dictionary_for_agent_with_generation
   fun:nw_path_snapshot_path
   fun:nw_path_evaluator_evaluate
   fun:nw_path_create_evaluator_for_endpoint
   fun:nw_nat64_v4_address_requires_synthesis
   fun:_gai_nat64_v4_address_requires_synthesis
   fun:_gai_nat64_second_pass
   fun:si_addrinfo
}
{
   <insert_a_suppression_name_here>
   Memcheck:Leak
   match-leak-kinds: possible
   fun:calloc
   fun:_ZN4objc8DenseMapIP10objc_classS2_NS_17DenseMapValueInfoIS2_EENS_12DenseMapInfoIS2_EENS_6detail12DenseMapPairIS2_S2_EEE4growEj
   fun:_ZL16addRemappedClassP10objc_classS0_
   fun:_Z15allocateBucketsj
   fun:lookUpImpOrForward
   fun:_xpc_payload_alloc
   fun:_xpc_payload_create_from_mach_msg
   fun:xpc_receive_mach_msg
   fun:_xpc_pipe_routine
   fun:xpc_pipe_routine_with_flags
   fun:_xpc_interface_routine
   fun:bootstrap_look_up3
}
{
   <insert_a_suppression_name_here>
   Memcheck:Cond
   fun:_platform_strcmp
   fun:ne_session_agent_get_advisory
   fun:__nw_path_snapshot_fallback_block_invoke
   fun:_xpc_dictionary_apply_apply
   fun:_xpc_dictionary_apply_node_f
   fun:xpc_dictionary_apply
   fun:nw_path_snapshot_fallback
   fun:nw_path_snapshot_path
   fun:nw_path_evaluator_evaluate
   fun:nw_path_create_evaluator_for_endpoint
   fun:nw_nat64_v4_address_requires_synthesis
   fun:_gai_nat64_v4_address_requires_synthesis
}
{
   <insert_a_suppression_name_here>
   Memcheck:Param
   necp_client_action(COPY_AGENT, buffer)
   fun:necp_client_action
   fun:nw_network_agent_copy_dictionary_from_necp
   fun:nw_path_copy_dictionary_for_agent_with_generation
   fun:nw_path_snapshot_path
   fun:nw_path_evaluator_evaluate
   fun:nw_path_create_evaluator_for_endpoint
   fun:nw_nat64_v4_address_requires_synthesis
   fun:_gai_nat64_v4_address_requires_synthesis
   fun:_gai_nat64_second_pass
   fun:si_addrinfo
   fun:_getaddrinfo_internal
   fun:getaddrinfo
}
{
   <insert_a_suppression_name_here>
   Memcheck:Value8
   fun:_platform_memmove$VARIANT$Haswell
   fun:xpc_data_create
   fun:xpc_dictionary_set_data
   fun:nw_network_agent_copy_dictionary_from_necp
   fun:nw_path_copy_dictionary_for_agent_with_generation
   fun:nw_path_snapshot_path
   fun:nw_path_evaluator_evaluate
   fun:nw_path_create_evaluator_for_endpoint
   fun:nw_nat64_v4_address_requires_synthesis
   fun:_gai_nat64_v4_address_requires_synthesis
   fun:_gai_nat64_second_pass
   fun:si_addrinfo
}
{
   <insert_a_suppression_name_here>
   Memcheck:Value8
   fun:_platform_strcmp
   fun:is_config_agent_type_proxy
   fun:nw_path_snapshot_path
   fun:nw_path_evaluator_evaluate
   fun:nw_path_create_evaluator_for_endpoint
   fun:nw_nat64_v4_address_requires_synthesis
   fun:_gai_nat64_v4_address_requires_synthesis
   fun:_gai_nat64_second_pass
   fun:si_addrinfo
   fun:_getaddrinfo_internal
   fun:getaddrinfo
   fun:Curl_getaddrinfo_ex
}
{
   <insert_a_suppression_name_here>
   Memcheck:Leak
   match-leak-kinds: definite
   fun:malloc
   fun:strdup
   fun:__CFStringCreateImmutableFunnel3
   obj:/System/Library/Frameworks/CoreFoundation.framework/Versions/A/CoreFoundation
   fun:_ZN16ImageLoaderMachO11doImageInitERKN11ImageLoader11LinkContextE
   fun:_ZN16ImageLoaderMachO16doInitializationERKN11ImageLoader11LinkContextE
   fun:_ZN11ImageLoader23recursiveInitializationERKNS_11LinkContextEjPKcRNS_21InitializerTimingListERNS_15UninitedUpwardsE
   fun:_ZN11ImageLoader23recursiveInitializationERKNS_11LinkContextEjPKcRNS_21InitializerTimingListERNS_15UninitedUpwardsE
   fun:_ZN11ImageLoader23recursiveInitializationERKNS_11LinkContextEjPKcRNS_21InitializerTimingListERNS_15UninitedUpwardsE
   fun:_ZN11ImageLoader23recursiveInitializationERKNS_11LinkContextEjPKcRNS_21InitializerTimingListERNS_15UninitedUpwardsE
   fun:_ZN11ImageLoader23recursiveInitializationERKNS_11LinkContextEjPKcRNS_21InitializerTimingListERNS_15UninitedUpwardsE
   fun:_ZN11ImageLoader23recursiveInitializationERKNS_11LinkContextEjPKcRNS_21InitializerTimingListERNS_15UninitedUpwardsE
}
{
   <insert_a_suppression_name_here>
   Memcheck:Leak
   match-leak-kinds: possible
   fun:calloc
   fun:_ZL33realizeClassMaybeSwiftMaybeRelockP10objc_classR8mutex_ttILb0EEb
   fun:_ZL32adjustCustomFlagsForMethodChangeP10objc_classP8method_t
   fun:_ZL32adjustCustomFlagsForMethodChangeP10objc_classP8method_t
   fun:_ZL16attachCategoriesP10objc_classPK21locstamped_category_tji
   fun:_ZN10objc_class11mangledNameEv
   fun:_ZN10objc_class11mangledNameEv
   fun:_ZL16addRemappedClassP10objc_classS0_
   fun:objc_initializeClassPair
   fun:_NSToDoAtProcessStart
   fun:_NSInitializePlatform
   fun:objc_msgLookup_fpret
}
{
   <insert_a_suppression_name_here>
   Memcheck:Leak
   match-leak-kinds: possible
   fun:calloc
   fun:_ZN4objc8DenseMapIP10objc_classS2_NS_17DenseMapValueInfoIS2_EENS_12DenseMapInfoIS2_EENS_6detail12DenseMapPairIS2_S2_EEE4growEj
   fun:_ZL16addRemappedClassP10objc_classS0_
   fun:_Z15allocateBucketsj
   fun:lookUpImpOrForward
   fun:_NSInitializePlatform
   fun:objc_msgLookup_fpret
   fun:_ZN4dyldL12notifySingleE17dyld_image_statesPK11ImageLoaderPNS1_21InitializerTimingListE
   fun:_ZN11ImageLoader23recursiveInitializationERKNS_11LinkContextEjPKcRNS_21InitializerTimingListERNS_15UninitedUpwardsE
   fun:_ZN11ImageLoader23recursiveInitializationERKNS_11LinkContextEjPKcRNS_21InitializerTimingListERNS_15UninitedUpwardsE
   fun:_ZN11ImageLoader23recursiveInitializationERKNS_11LinkContextEjPKcRNS_21InitializerTimingListERNS_15UninitedUpwardsE
   fun:_ZN11ImageLoader23recursiveInitializationERKNS_11LinkContextEjPKcRNS_21InitializerTimingListERNS_15UninitedUpwardsE
}
{
   <insert_a_suppression_name_here>
   Memcheck:Cond
   fun:calloc
   fun:objc_msgSend_stret
   fun:_os_object_alloc_realized
   fun:dispatch_data_create_alloc
   fun:xpc_data_create
   fun:xpc_dictionary_set_data
   fun:nw_network_agent_copy_dictionary_from_necp
   fun:nw_path_copy_dictionary_for_agent_with_generation
   fun:nw_path_snapshot_path
   fun:nw_path_evaluator_evaluate
   fun:nw_path_create_evaluator_for_endpoint
   fun:nw_nat64_v4_address_requires_synthesis
}
{
   <insert_a_suppression_name_here>
   Memcheck:Leak
   match-leak-kinds: possible
   fun:calloc
   fun:_ZN4objc8DenseMapIP10objc_classS2_NS_17DenseMapValueInfoIS2_EENS_12DenseMapInfoIS2_EENS_6detail12DenseMapPairIS2_S2_EEE4growEj
   fun:_ZL16addRemappedClassP10objc_classS0_
   fun:_ZL24realizeClassWithoutSwiftP10objc_classS0_
   fun:-[NSObject dealloc]
   fun:lookUpImpOrForward
   fun:nw_interface_create_from_necp
   fun:nw_path_copy_interface_with_generation
   fun:nw_path_snapshot_path
   fun:nw_path_evaluator_evaluate
   fun:nw_path_create_evaluator_for_endpoint
   fun:nw_nat64_v4_address_requires_synthesis
}
{
   <insert_a_suppression_name_here>
   Memcheck:Leak
   match-leak-kinds: definite
   fun:calloc
   fun:_ZN4objc8DenseMapIP10objc_classS2_NS_17DenseMapValueInfoIS2_EENS_12DenseMapInfoIS2_EENS_6detail12DenseMapPairIS2_S2_EEE4growEj
   fun:_ZL16addRemappedClassP10objc_classS0_
   fun:objc_initializeClassPair
   fun:objc_registerClassPair
   fun:__CFInitialize
   obj:/System/Library/Frameworks/CoreFoundation.framework/Versions/A/CoreFoundation
   fun:_ZN16ImageLoaderMachO11doImageInitERKN11ImageLoader11LinkContextE
   fun:_ZN16ImageLoaderMachO16doInitializationERKN11ImageLoader11LinkContextE
   fun:_ZN11ImageLoader23recursiveInitializationERKNS_11LinkContextEjPKcRNS_21InitializerTimingListERNS_15UninitedUpwardsE
   fun:_ZN11ImageLoader23recursiveInitializationERKNS_11LinkContextEjPKcRNS_21InitializerTimingListERNS_15UninitedUpwardsE
   fun:_ZN11ImageLoader23recursiveInitializationERKNS_11LinkContextEjPKcRNS_21InitializerTimingListERNS_15UninitedUpwardsE
}
{
   <insert_a_suppression_name_here>
   Memcheck:Leak
   match-leak-kinds: possible
   fun:calloc
   fun:_ZN4objc8DenseMapIP10objc_classS2_NS_17DenseMapValueInfoIS2_EENS_12DenseMapInfoIS2_EENS_6detail12DenseMapPairIS2_S2_EEE4growEj
   fun:_ZN10objc_class11mangledNameEv
   fun:_ZL16addRemappedClassP10objc_classS0_
   fun:_Z15allocateBucketsj
   fun:lookUpImpOrForward
   fun:nw_endpoint_create_address
   fun:nw_nat64_v4_address_requires_synthesis
   fun:_gai_nat64_v4_address_requires_synthesis
   fun:_gai_nat64_second_pass
   fun:si_addrinfo
   fun:_getaddrinfo_internal
}
{
   <insert_a_suppression_name_here>
   Memcheck:Cond
   fun:_platform_memmove$VARIANT$Haswell
   fun:_platform_strlcpy
   fun:__strlcpy_chk
   fun:nw_interface_create_from_necp
   fun:nw_path_copy_interface_with_generation
   fun:nw_path_snapshot_path
   fun:nw_path_evaluator_evaluate
   fun:nw_path_create_evaluator_for_endpoint
   fun:nw_nat64_v4_address_requires_synthesis
   fun:_gai_nat64_v4_address_requires_synthesis
   fun:_gai_nat64_second_pass
   fun:si_addrinfo
}
{
   <insert_a_suppression_name_here>
   Memcheck:Leak
   match-leak-kinds: possible
   fun:calloc
   fun:_ZL33realizeClassMaybeSwiftMaybeRelockP10objc_classR8mutex_ttILb0EEb
   fun:_ZL32adjustCustomFlagsForMethodChangeP10objc_classP8method_t
   fun:_ZL32adjustCustomFlagsForMethodChangeP10objc_classP8method_t
   fun:_ZL16attachCategoriesP10objc_classPK21locstamped_category_tji
   fun:_ZN10objc_class11mangledNameEv
   fun:_ZL16addRemappedClassP10objc_classS0_
   fun:objc_initializeClassPair
   fun:_NSToDoAtProcessStart
   fun:_NSInitializePlatform
   fun:objc_msgLookup_fpret
   fun:_ZN4dyldL12notifySingleE17dyld_image_statesPK11ImageLoaderPNS1_21InitializerTimingListE
}
{
   <insert_a_suppression_name_here>
   Memcheck:Leak
   match-leak-kinds: definite
   fun:calloc
   fun:nw_context_get_globals_for_path
   fun:nw_path_shared_necp_fd
   fun:nw_path_evaluator_evaluate
   fun:nw_path_create_evaluator_for_endpoint
   fun:nw_nat64_v4_address_requires_synthesis
   fun:_gai_nat64_v4_address_requires_synthesis
   fun:_gai_nat64_second_pass
   fun:si_addrinfo
   fun:_getaddrinfo_internal
   fun:getaddrinfo
   fun:Curl_getaddrinfo_ex
}
{
   <insert_a_suppression_name_here>
   Memcheck:Leak
   match-leak-kinds: definite
   fun:calloc
   fun:_ZN4objc8DenseMapIP10objc_classS2_NS_17DenseMapValueInfoIS2_EENS_12DenseMapInfoIS2_EENS_6detail12DenseMapPairIS2_S2_EEE4growEj
   fun:_ZL16addRemappedClassP10objc_classS0_
   fun:_ZL24realizeClassWithoutSwiftP10objc_classS0_
   fun:-[NSObject dealloc]
   fun:lookUpImpOrForward
   fun:__CFStringCreateImmutableFunnel3
   obj:/System/Library/Frameworks/CoreFoundation.framework/Versions/A/CoreFoundation
   fun:_ZN16ImageLoaderMachO11doImageInitERKN11ImageLoader11LinkContextE
   fun:_ZN16ImageLoaderMachO16doInitializationERKN11ImageLoader11LinkContextE
   fun:_ZN11ImageLoader23recursiveInitializationERKNS_11LinkContextEjPKcRNS_21InitializerTimingListERNS_15UninitedUpwardsE
   fun:_ZN11ImageLoader23recursiveInitializationERKNS_11LinkContextEjPKcRNS_21InitializerTimingListERNS_15UninitedUpwardsE
}
{
   <insert_a_suppression_name_here>
   Memcheck:Leak
   match-leak-kinds: possible
   fun:calloc
   fun:object_getIndexedIvars
   fun:+[NSObject new]
   fun:+[NSArray allocWithZone:]
   obj:/System/Library/Frameworks/CoreFoundation.framework/Versions/A/CoreFoundation
   fun:_ZN16ImageLoaderMachO11doImageInitERKN11ImageLoader11LinkContextE
   fun:_ZN16ImageLoaderMachO16doInitializationERKN11ImageLoader11LinkContextE
   fun:_ZN11ImageLoader23recursiveInitializationERKNS_11LinkContextEjPKcRNS_21InitializerTimingListERNS_15UninitedUpwardsE
   fun:_ZN11ImageLoader23recursiveInitializationERKNS_11LinkContextEjPKcRNS_21InitializerTimingListERNS_15UninitedUpwardsE
   fun:_ZN11ImageLoader23recursiveInitializationERKNS_11LinkContextEjPKcRNS_21InitializerTimingListERNS_15UninitedUpwardsE
   fun:_ZN11ImageLoader23recursiveInitializationERKNS_11LinkContextEjPKcRNS_21InitializerTimingListERNS_15UninitedUpwardsE
   fun:_ZN11ImageLoader23recursiveInitializationERKNS_11LinkContextEjPKcRNS_21InitializerTimingListERNS_15UninitedUpwardsE
}
{
   <insert_a_suppression_name_here>
   Memcheck:Leak
   match-leak-kinds: possible
   fun:calloc
   fun:_ZN4objc8DenseMapIP10objc_classS2_NS_17DenseMapValueInfoIS2_EENS_12DenseMapInfoIS2_EENS_6detail12DenseMapPairIS2_S2_EEE4growEj
   fun:_ZL16addRemappedClassP10objc_classS0_
   fun:_Z15allocateBucketsj
   fun:lookUpImpOrForward
   fun:nw_endpoint_create_address
   fun:nw_nat64_v4_address_requires_synthesis
   fun:_gai_nat64_v4_address_requires_synthesis
   fun:_gai_nat64_second_pass
   fun:si_addrinfo
   fun:_getaddrinfo_internal
   fun:getaddrinfo
}
{
   <insert_a_suppression_name_here>
   Memcheck:Leak
   match-leak-kinds: definite
   fun:calloc
   fun:_ZL13getClass_implPKc
   fun:_ZN11objc_object27sidetable_clearDeallocatingEv
   fun:_ZL19_finishInitializingP10objc_classS0_
   fun:lookUpImpOrForward
   fun:__CFStringCreateImmutableFunnel3
   obj:/System/Library/Frameworks/CoreFoundation.framework/Versions/A/CoreFoundation
   fun:_ZN16ImageLoaderMachO11doImageInitERKN11ImageLoader11LinkContextE
   fun:_ZN16ImageLoaderMachO16doInitializationERKN11ImageLoader11LinkContextE
   fun:_ZN11ImageLoader23recursiveInitializationERKNS_11LinkContextEjPKcRNS_21InitializerTimingListERNS_15UninitedUpwardsE
   fun:_ZN11ImageLoader23recursiveInitializationERKNS_11LinkContextEjPKcRNS_21InitializerTimingListERNS_15UninitedUpwardsE
   fun:_ZN11ImageLoader23recursiveInitializationERKNS_11LinkContextEjPKcRNS_21InitializerTimingListERNS_15UninitedUpwardsE
}
{
   <insert_a_suppression_name_here>
   Memcheck:Leak
   match-leak-kinds: possible
   fun:calloc
   fun:_ZN4objc8DenseMapIP10objc_classS2_NS_17DenseMapValueInfoIS2_EENS_12DenseMapInfoIS2_EENS_6detail12DenseMapPairIS2_S2_EEE4growEj
   fun:_ZL16addRemappedClassP10objc_classS0_
   fun:_Z15allocateBucketsj
   fun:lookUpImpOrForward
   fun:nw_interface_create_from_necp
   fun:nw_path_copy_interface_with_generation
   fun:nw_path_snapshot_path
   fun:nw_path_evaluator_evaluate
   fun:nw_path_create_evaluator_for_endpoint
   fun:nw_nat64_v4_address_requires_synthesis
   fun:_gai_nat64_v4_address_requires_synthesis
}
{
   <insert_a_suppression_name_here>
   Memcheck:Leak
   match-leak-kinds: possible
   fun:calloc
   fun:_ZN4objc8DenseMapIP10objc_classS2_NS_17DenseMapValueInfoIS2_EENS_12DenseMapInfoIS2_EENS_6detail12DenseMapPairIS2_S2_EEE4growEj
   fun:_ZL16addRemappedClassP10objc_classS0_
   fun:_ZL24realizeClassWithoutSwiftP10objc_classS0_
   fun:-[NSObject dealloc]
   fun:lookUpImpOrForward
   fun:_NSInitializePlatform
   fun:objc_msgLookup_fpret
   fun:_ZN4dyldL12notifySingleE17dyld_image_statesPK11ImageLoaderPNS1_21InitializerTimingListE
   fun:_ZN11ImageLoader23recursiveInitializationERKNS_11LinkContextEjPKcRNS_21InitializerTimingListERNS_15UninitedUpwardsE
   fun:_ZN11ImageLoader23recursiveInitializationERKNS_11LinkContextEjPKcRNS_21InitializerTimingListERNS_15UninitedUpwardsE
   fun:_ZN11ImageLoader23recursiveInitializationERKNS_11LinkContextEjPKcRNS_21InitializerTimingListERNS_15UninitedUpwardsE
}
{
   <insert_a_suppression_name_here>
   Memcheck:Leak
   match-leak-kinds: possible
   fun:calloc
   fun:_ZN4objc8DenseMapIP10objc_classS2_NS_17DenseMapValueInfoIS2_EENS_12DenseMapInfoIS2_EENS_6detail12DenseMapPairIS2_S2_EEE4growEj
   fun:_ZL16addRemappedClassP10objc_classS0_
   fun:objc_initializeClassPair
   fun:___NSSetupDispatchDataBridge_block_invoke
   fun:_dispatch_client_callout
   fun:_dispatch_once_callout
   fun:_NSSetupDispatchDataBridge
   fun:objc_msgLookup_fpret
   fun:_ZN4dyldL12notifySingleE17dyld_image_statesPK11ImageLoaderPNS1_21InitializerTimingListE
   fun:_ZN11ImageLoader23recursiveInitializationERKNS_11LinkContextEjPKcRNS_21InitializerTimingListERNS_15UninitedUpwardsE
   fun:_ZN11ImageLoader23recursiveInitializationERKNS_11LinkContextEjPKcRNS_21InitializerTimingListERNS_15UninitedUpwardsE
}
{
   <insert_a_suppression_name_here>
   Memcheck:Cond
   fun:_platform_strlen
   fun:_platform_strlcpy
   fun:__strlcpy_chk
   fun:nw_interface_create_from_necp
   fun:nw_path_copy_interface_with_generation
   fun:nw_path_snapshot_path
   fun:nw_path_evaluator_evaluate
   fun:nw_path_create_evaluator_for_endpoint
   fun:nw_nat64_v4_address_requires_synthesis
   fun:_gai_nat64_v4_address_requires_synthesis
   fun:_gai_nat64_second_pass
   fun:si_addrinfo
}
{
   <insert_a_suppression_name_here>
   Memcheck:Leak
   match-leak-kinds: definite
   fun:calloc
   fun:_ZN4objc8DenseMapIP10objc_classS2_NS_17DenseMapValueInfoIS2_EENS_12DenseMapInfoIS2_EENS_6detail12DenseMapPairIS2_S2_EEE4growEj
   fun:_ZL16addRemappedClassP10objc_classS0_
   fun:objc_initializeClassPair
   fun:_NSToDoAtProcessStart
   fun:_NSInitializePlatform
   fun:objc_msgLookup_fpret
   fun:_ZN4dyldL12notifySingleE17dyld_image_statesPK11ImageLoaderPNS1_21InitializerTimingListE
   fun:_ZN11ImageLoader23recursiveInitializationERKNS_11LinkContextEjPKcRNS_21InitializerTimingListERNS_15UninitedUpwardsE
   fun:_ZN11ImageLoader23recursiveInitializationERKNS_11LinkContextEjPKcRNS_21InitializerTimingListERNS_15UninitedUpwardsE
   fun:_ZN11ImageLoader23recursiveInitializationERKNS_11LinkContextEjPKcRNS_21InitializerTimingListERNS_15UninitedUpwardsE
   fun:_ZN11ImageLoader23recursiveInitializationERKNS_11LinkContextEjPKcRNS_21InitializerTimingListERNS_15UninitedUpwardsE
}
{
   <insert_a_suppression_name_here>
   Memcheck:Cond
   fun:nw_interface_create_from_necp
   fun:nw_path_copy_interface_with_generation
   fun:nw_path_snapshot_path
   fun:nw_path_evaluator_evaluate
   fun:nw_path_create_evaluator_for_endpoint
   fun:nw_nat64_v4_address_requires_synthesis
   fun:_gai_nat64_v4_address_requires_synthesis
   fun:_gai_nat64_second_pass
   fun:si_addrinfo
   fun:_getaddrinfo_internal
   fun:getaddrinfo
   fun:Curl_getaddrinfo_ex
}
{
   <insert_a_suppression_name_here>
   Memcheck:Leak
   match-leak-kinds: definite
   fun:calloc
   fun:_ZL13getClass_implPKc
   fun:_ZN11objc_object27sidetable_clearDeallocatingEv
   fun:_ZL19_finishInitializingP10objc_classS0_
   fun:lookUpImpOrForward
   fun:-[NSThread init]
   fun:____NSThreads_block_invoke
   fun:_dispatch_client_callout
   fun:_dispatch_once_callout
   fun:_NSThreadGet0
   fun:_NSInitializePlatform
   fun:objc_msgLookup_fpret
}
{
   <insert_a_suppression_name_here>
   Memcheck:Leak
   match-leak-kinds: definite
   fun:calloc
   fun:_ZN4objc8DenseMapIP10objc_classS2_NS_17DenseMapValueInfoIS2_EENS_12DenseMapInfoIS2_EENS_6detail12DenseMapPairIS2_S2_EEE4growEj
   fun:_ZN10objc_class11mangledNameEv
   fun:_ZN10objc_class11mangledNameEv
   fun:_ZNK8objc_opt17objc_stringhash_t8getIndexEPKc
   fun:unmap_image
   fun:_ZN4dyldL18notifyBatchPartialE17dyld_image_statesbPFPKcS0_jPK15dyld_image_infoEbb
   fun:_ZN4dyld21registerObjCNotifiersEPFvjPKPKcPKPK11mach_headerEPFvS1_S6_ESC_
   fun:_dyld_objc_notify_register
   fun:map_images_nolock
   fun:_os_object_init
   fun:libdispatch_init
}
{
   <insert_a_suppression_name_here>
   Memcheck:Cond
   fun:nw_path_netagent_applies_to_path
   fun:__nw_path_agents_are_satisfied_update_reason_block_invoke
   fun:_xpc_dictionary_apply_apply
   fun:_xpc_dictionary_apply_node_f
   fun:xpc_dictionary_apply
   fun:nw_path_agents_are_satisfied_update_reason
   fun:nw_path_snapshot_path
   fun:nw_path_evaluator_evaluate
   fun:nw_path_create_evaluator_for_endpoint
   fun:nw_nat64_v4_address_requires_synthesis
   fun:_gai_nat64_v4_address_requires_synthesis
   fun:_gai_nat64_second_pass
}
{
   <insert_a_suppression_name_here>
   Memcheck:Leak
   match-leak-kinds: possible
   fun:calloc
   fun:_ZL33realizeClassMaybeSwiftMaybeRelockP10objc_classR8mutex_ttILb0EEb
   fun:_ZL32adjustCustomFlagsForMethodChangeP10objc_classP8method_t
   fun:property_copyAttributeValue
   fun:_ZL10free_classP10objc_class
   fun:objc_msgLookup
   fun:_ZN4dyldL12notifySingleE17dyld_image_statesPK11ImageLoaderPNS1_21InitializerTimingListE
   fun:_ZN11ImageLoader23recursiveInitializationERKNS_11LinkContextEjPKcRNS_21InitializerTimingListERNS_15UninitedUpwardsE
   fun:_ZN11ImageLoader19processInitializersERKNS_11LinkContextEjRNS_21InitializerTimingListERNS_15UninitedUpwardsE
   fun:_ZN11ImageLoader19processInitializersERKNS_11LinkContextEjRNS_21InitializerTimingListERNS_15UninitedUpwardsE
   fun:_ZN11ImageLoader15runInitializersERKNS_11LinkContextERNS_21InitializerTimingListE
   fun:_ZN4dyld24initializeMainExecutableEv
}
{
   <insert_a_suppression_name_here>
   Memcheck:Leak
   match-leak-kinds: possible
   fun:calloc
   fun:_ZN4objc8DenseMapIP10objc_classS2_NS_17DenseMapValueInfoIS2_EENS_12DenseMapInfoIS2_EENS_6detail12DenseMapPairIS2_S2_EEE4growEj
   fun:_ZL16addRemappedClassP10objc_classS0_
   fun:_ZL24realizeClassWithoutSwiftP10objc_classS0_
   fun:-[NSObject dealloc]
   fun:lookUpImpOrForward
   fun:-[NWConcrete_nw_parameters initWithStack:]
   fun:nw_path_create_evaluator_for_endpoint
   fun:nw_nat64_v4_address_requires_synthesis
   fun:_gai_nat64_v4_address_requires_synthesis
   fun:_gai_nat64_second_pass
   fun:si_addrinfo
}
{
   <insert_a_suppression_name_here>
   Memcheck:Cond
   fun:__chk_overlap
   fun:__strlcpy_chk
   fun:nw_interface_create_from_necp
   fun:nw_path_copy_interface_with_generation
   fun:nw_path_snapshot_path
   fun:nw_path_evaluator_evaluate
   fun:nw_path_create_evaluator_for_endpoint
   fun:nw_nat64_v4_address_requires_synthesis
   fun:_gai_nat64_v4_address_requires_synthesis
   fun:_gai_nat64_second_pass
   fun:si_addrinfo
   fun:_getaddrinfo_internal
}
{
   <insert_a_suppression_name_here>
   Memcheck:Cond
   fun:is_config_agent_type_proxy
   fun:nw_path_snapshot_path
   fun:nw_path_evaluator_evaluate
   fun:nw_path_create_evaluator_for_endpoint
   fun:nw_nat64_v4_address_requires_synthesis
   fun:_gai_nat64_v4_address_requires_synthesis
   fun:_gai_nat64_second_pass
   fun:si_addrinfo
   fun:_getaddrinfo_internal
   fun:getaddrinfo
   fun:Curl_getaddrinfo_ex
   fun:getaddrinfo_thread
}
{
   <insert_a_suppression_name_here>
   Memcheck:Leak
   match-leak-kinds: definite
   fun:calloc
   fun:_ZN4objc8DenseMapIP10objc_classS2_NS_17DenseMapValueInfoIS2_EENS_12DenseMapInfoIS2_EENS_6detail12DenseMapPairIS2_S2_EEE4growEj
   fun:_ZL16addRemappedClassP10objc_classS0_
   fun:objc_initializeClassPair
   fun:+[NSArray allocWithZone:]
   obj:/System/Library/Frameworks/CoreFoundation.framework/Versions/A/CoreFoundation
   fun:_ZN16ImageLoaderMachO11doImageInitERKN11ImageLoader11LinkContextE
   fun:_ZN16ImageLoaderMachO16doInitializationERKN11ImageLoader11LinkContextE
   fun:_ZN11ImageLoader23recursiveInitializationERKNS_11LinkContextEjPKcRNS_21InitializerTimingListERNS_15UninitedUpwardsE
   fun:_ZN11ImageLoader23recursiveInitializationERKNS_11LinkContextEjPKcRNS_21InitializerTimingListERNS_15UninitedUpwardsE
   fun:_ZN11ImageLoader23recursiveInitializationERKNS_11LinkContextEjPKcRNS_21InitializerTimingListERNS_15UninitedUpwardsE
   fun:_ZN11ImageLoader23recursiveInitializationERKNS_11LinkContextEjPKcRNS_21InitializerTimingListERNS_15UninitedUpwardsE
}
{
   <insert_a_suppression_name_here>
   Memcheck:Leak
   match-leak-kinds: possible
   fun:malloc
   fun:_ZL24realizeClassWithoutSwiftP10objc_classS0_
   fun:_ZL32adjustCustomFlagsForMethodChangeP10objc_classP8method_t
   fun:_ZL32adjustCustomFlagsForMethodChangeP10objc_classP8method_t
   fun:_ZL16attachCategoriesP10objc_classPK21locstamped_category_tji
   fun:_ZN10objc_class11mangledNameEv
   fun:_ZL16addRemappedClassP10objc_classS0_
   fun:objc_initializeClassPair
   fun:_NSToDoAtProcessStart
   fun:_NSInitializePlatform
   fun:objc_msgLookup_fpret
   fun:_ZN4dyldL12notifySingleE17dyld_image_statesPK11ImageLoaderPNS1_21InitializerTimingListE
}
{
   <insert_a_suppression_name_here>
   Memcheck:Leak
   match-leak-kinds: definite
   fun:calloc
   fun:_ZN4objc8DenseMapIP10objc_classS2_NS_17DenseMapValueInfoIS2_EENS_12DenseMapInfoIS2_EENS_6detail12DenseMapPairIS2_S2_EEE4growEj
   fun:_ZN10objc_class11mangledNameEv
   fun:_ZL16addRemappedClassP10objc_classS0_
   fun:objc_initializeClassPair
   fun:+[NSArray allocWithZone:]
   obj:/System/Library/Frameworks/CoreFoundation.framework/Versions/A/CoreFoundation
   fun:_ZN16ImageLoaderMachO11doImageInitERKN11ImageLoader11LinkContextE
   fun:_ZN16ImageLoaderMachO16doInitializationERKN11ImageLoader11LinkContextE
   fun:_ZN11ImageLoader23recursiveInitializationERKNS_11LinkContextEjPKcRNS_21InitializerTimingListERNS_15UninitedUpwardsE
   fun:_ZN11ImageLoader23recursiveInitializationERKNS_11LinkContextEjPKcRNS_21InitializerTimingListERNS_15UninitedUpwardsE
   fun:_ZN11ImageLoader23recursiveInitializationERKNS_11LinkContextEjPKcRNS_21InitializerTimingListERNS_15UninitedUpwardsE
}
{
   <insert_a_suppression_name_here>
   Memcheck:Leak
   match-leak-kinds: possible
   fun:calloc
   fun:_notify_fork_child
   fun:_notify_fork_child
   fun:notify_register_check
   fun:__si_module_static_ds_block_invoke
   fun:_dispatch_client_callout
   fun:_dispatch_once_callout
   fun:si_module_static_ds
   fun:si_module_with_name
   fun:si_module_config_modules_for_category
   fun:__si_module_static_search_block_invoke
   fun:_dispatch_client_callout
}
{
   <insert_a_suppression_name_here>
   Memcheck:Leak
   match-leak-kinds: definite
   fun:calloc
   fun:_ZL13getClass_implPKc
   fun:_ZN11objc_object27sidetable_clearDeallocatingEv
   fun:_ZL19_finishInitializingP10objc_classS0_
   fun:_ZL13addNamedClassP10objc_classPKcS0_
   fun:_CFProcessPath
   fun:____NSThreads_block_invoke
   fun:_dispatch_client_callout
   fun:_dispatch_once_callout
   fun:_NSThreadGet0
   fun:_NSInitializePlatform
   fun:objc_msgLookup_fpret
}
{
   <insert_a_suppression_name_here>
   Memcheck:Leak
   match-leak-kinds: definite
   fun:calloc
   fun:_ZL13getClass_implPKc
   fun:_ZN11objc_object27sidetable_clearDeallocatingEv
   fun:_ZL19_finishInitializingP10objc_classS0_
   fun:lookUpImpOrForward
   fun:weak_register_no_lock
   fun:-[NSThread init]
   fun:____NSThreads_block_invoke
   fun:_dispatch_client_callout
   fun:_dispatch_once_callout
   fun:_NSThreadGet0
   fun:_NSInitializePlatform
}
{
   <insert_a_suppression_name_here>
   Memcheck:Leak
   match-leak-kinds: possible
   fun:calloc
   fun:_ZN4objc8DenseMapIP10objc_classS2_NS_17DenseMapValueInfoIS2_EENS_12DenseMapInfoIS2_EENS_6detail12DenseMapPairIS2_S2_EEE4growEj
   fun:_ZL16addRemappedClassP10objc_classS0_
   fun:_Z15allocateBucketsj
   fun:lookUpImpOrForward
   fun:nw_path_create_evaluator_for_endpoint
   fun:nw_nat64_v4_address_requires_synthesis
   fun:_gai_nat64_v4_address_requires_synthesis
   fun:_gai_nat64_second_pass
   fun:si_addrinfo
   fun:_getaddrinfo_internal
   fun:getaddrinfo
}
{
   <insert_a_suppression_name_here>
   Memcheck:Leak
   match-leak-kinds: definite
   fun:calloc
   fun:nw_hash_table_create
   fun:nw_context_initialize_globals
   fun:nw_context_activate
   fun:_dispatch_client_callout
   fun:_dispatch_once_callout
   fun:-[NWConcrete_nw_parameters initWithStack:]
   fun:nw_path_create_evaluator_for_endpoint
   fun:nw_nat64_v4_address_requires_synthesis
   fun:_gai_nat64_v4_address_requires_synthesis
   fun:_gai_nat64_second_pass
   fun:si_addrinfo
}
{
   <insert_a_suppression_name_here>
   Memcheck:Leak
   match-leak-kinds: definite
   fun:calloc
   fun:_ZN4objc8DenseMapIP10objc_classS2_NS_17DenseMapValueInfoIS2_EENS_12DenseMapInfoIS2_EENS_6detail12DenseMapPairIS2_S2_EEE4growEj
   fun:_ZN10objc_class11mangledNameEv
   fun:_ZL16addRemappedClassP10objc_classS0_
   fun:objc_initializeClassPair
   obj:/System/Library/Frameworks/CoreFoundation.framework/Versions/A/CoreFoundation
   fun:_dispatch_client_callout
   fun:_dispatch_once_callout
   obj:/System/Library/Frameworks/CoreFoundation.framework/Versions/A/CoreFoundation
   fun:objc_msgLookup_fpret
   fun:_ZN4dyldL12notifySingleE17dyld_image_statesPK11ImageLoaderPNS1_21InitializerTimingListE
   fun:_ZN11ImageLoader23recursiveInitializationERKNS_11LinkContextEjPKcRNS_21InitializerTimingListERNS_15UninitedUpwardsE
}
{
   <insert_a_suppression_name_here>
   Memcheck:Leak
   match-leak-kinds: possible
   fun:calloc
   fun:_ZN4objc8DenseMapIP10objc_classS2_NS_17DenseMapValueInfoIS2_EENS_12DenseMapInfoIS2_EENS_6detail12DenseMapPairIS2_S2_EEE4growEj
   fun:_ZL16addRemappedClassP10objc_classS0_
   fun:_Z15allocateBucketsj
   fun:lookUpImpOrForward
   fun:-[NSThread init]
   fun:____NSThreads_block_invoke
   fun:_dispatch_client_callout
   fun:_dispatch_once_callout
   fun:_NSThreadGet0
   fun:_NSInitializePlatform
   fun:objc_msgLookup_fpret
}
{
   <insert_a_suppression_name_here>
   Memcheck:Leak
   match-leak-kinds: definite
   fun:calloc
   fun:_ZN4objc8DenseMapIP10objc_classS2_NS_17DenseMapValueInfoIS2_EENS_12DenseMapInfoIS2_EENS_6detail12DenseMapPairIS2_S2_EEE4growEj
   fun:_ZN10objc_class11mangledNameEv
   fun:_ZL16addRemappedClassP10objc_classS0_
   fun:objc_initializeClassPair
   fun:objc_registerClassPair
   fun:__CFInitialize
   obj:/System/Library/Frameworks/CoreFoundation.framework/Versions/A/CoreFoundation
   fun:_ZN16ImageLoaderMachO11doImageInitERKN11ImageLoader11LinkContextE
   fun:_ZN16ImageLoaderMachO16doInitializationERKN11ImageLoader11LinkContextE
   fun:_ZN11ImageLoader23recursiveInitializationERKNS_11LinkContextEjPKcRNS_21InitializerTimingListERNS_15UninitedUpwardsE
   fun:_ZN11ImageLoader23recursiveInitializationERKNS_11LinkContextEjPKcRNS_21InitializerTimingListERNS_15UninitedUpwardsE
}
{
   <insert_a_suppression_name_here>
   Memcheck:Cond
   fun:__nw_path_snapshot_fallback_block_invoke
   fun:_xpc_dictionary_apply_apply
   fun:_xpc_dictionary_apply_node_f
   fun:xpc_dictionary_apply
   fun:nw_path_snapshot_fallback
   fun:nw_path_snapshot_path
   fun:nw_path_evaluator_evaluate
   fun:nw_path_create_evaluator_for_endpoint
   fun:nw_nat64_v4_address_requires_synthesis
   fun:_gai_nat64_v4_address_requires_synthesis
   fun:_gai_nat64_second_pass
   fun:si_addrinfo
}
{
   <insert_a_suppression_name_here>
   Memcheck:Cond
   fun:_platform_memmove$VARIANT$Haswell
   fun:nw_interface_create_from_necp
   fun:nw_path_copy_interface_with_generation
   fun:nw_path_snapshot_path
   fun:nw_path_evaluator_evaluate
   fun:nw_path_create_evaluator_for_endpoint
   fun:nw_nat64_v4_address_requires_synthesis
   fun:_gai_nat64_v4_address_requires_synthesis
   fun:_gai_nat64_second_pass
   fun:si_addrinfo
   fun:_getaddrinfo_internal
   fun:getaddrinfo
}
{
   <insert_a_suppression_name_here>
   Memcheck:Leak
   match-leak-kinds: definite
   fun:calloc
   fun:_ZN4objc8DenseMapIP10objc_classS2_NS_17DenseMapValueInfoIS2_EENS_12DenseMapInfoIS2_EENS_6detail12DenseMapPairIS2_S2_EEE4growEj
   fun:_ZN10objc_class11mangledNameEv
   fun:_ZL16addRemappedClassP10objc_classS0_
   fun:objc_initializeClassPair
   obj:/System/Library/Frameworks/CoreFoundation.framework/Versions/A/CoreFoundation
   fun:_ZN16ImageLoaderMachO11doImageInitERKN11ImageLoader11LinkContextE
   fun:_ZN16ImageLoaderMachO16doInitializationERKN11ImageLoader11LinkContextE
   fun:_ZN11ImageLoader23recursiveInitializationERKNS_11LinkContextEjPKcRNS_21InitializerTimingListERNS_15UninitedUpwardsE
   fun:_ZN11ImageLoader23recursiveInitializationERKNS_11LinkContextEjPKcRNS_21InitializerTimingListERNS_15UninitedUpwardsE
   fun:_ZN11ImageLoader23recursiveInitializationERKNS_11LinkContextEjPKcRNS_21InitializerTimingListERNS_15UninitedUpwardsE
   fun:_ZN11ImageLoader23recursiveInitializationERKNS_11LinkContextEjPKcRNS_21InitializerTimingListERNS_15UninitedUpwardsE
}
{
   <insert_a_suppression_name_here>
   Memcheck:Value8
   fun:nw_interface_create_from_necp
   fun:nw_path_copy_interface_with_generation
   fun:nw_path_snapshot_path
   fun:nw_path_evaluator_evaluate
   fun:nw_path_create_evaluator_for_endpoint
   fun:nw_nat64_v4_address_requires_synthesis
   fun:_gai_nat64_v4_address_requires_synthesis
   fun:_gai_nat64_second_pass
   fun:si_addrinfo
   fun:_getaddrinfo_internal
   fun:getaddrinfo
   fun:Curl_getaddrinfo_ex
}
{
   <insert_a_suppression_name_here>
   Memcheck:Leak
   match-leak-kinds: definite
   fun:calloc
   fun:_ZN4objc8DenseMapIP10objc_classS2_NS_17DenseMapValueInfoIS2_EENS_12DenseMapInfoIS2_EENS_6detail12DenseMapPairIS2_S2_EEE4growEj
   fun:_ZN10objc_class11mangledNameEv
   fun:_ZL16addRemappedClassP10objc_classS0_
   fun:objc_initializeClassPair
   fun:CFArrayCreate
   obj:/System/Library/Frameworks/CoreFoundation.framework/Versions/A/CoreFoundation
   fun:_ZN16ImageLoaderMachO11doImageInitERKN11ImageLoader11LinkContextE
   fun:_ZN16ImageLoaderMachO16doInitializationERKN11ImageLoader11LinkContextE
   fun:_ZN11ImageLoader23recursiveInitializationERKNS_11LinkContextEjPKcRNS_21InitializerTimingListERNS_15UninitedUpwardsE
   fun:_ZN11ImageLoader23recursiveInitializationERKNS_11LinkContextEjPKcRNS_21InitializerTimingListERNS_15UninitedUpwardsE
   fun:_ZN11ImageLoader23recursiveInitializationERKNS_11LinkContextEjPKcRNS_21InitializerTimingListERNS_15UninitedUpwardsE
}
{
   <insert_a_suppression_name_here>
   Memcheck:Cond
   fun:xpc_data_create_with_dispatch_data
   fun:xpc_data_create
   fun:xpc_dictionary_set_data
   fun:nw_network_agent_copy_dictionary_from_necp
   fun:nw_path_copy_dictionary_for_agent_with_generation
   fun:nw_path_snapshot_path
   fun:nw_path_evaluator_evaluate
   fun:nw_path_create_evaluator_for_endpoint
   fun:nw_nat64_v4_address_requires_synthesis
   fun:_gai_nat64_v4_address_requires_synthesis
   fun:_gai_nat64_second_pass
   fun:si_addrinfo
}
{
   <insert_a_suppression_name_here>
   Memcheck:Value8
   fun:_platform_memmove$VARIANT$Haswell
   fun:nw_interface_create_from_necp
   fun:nw_path_copy_interface_with_generation
   fun:nw_path_snapshot_path
   fun:nw_path_evaluator_evaluate
   fun:nw_path_create_evaluator_for_endpoint
   fun:nw_nat64_v4_address_requires_synthesis
   fun:_gai_nat64_v4_address_requires_synthesis
   fun:_gai_nat64_second_pass
   fun:si_addrinfo
   fun:_getaddrinfo_internal
   fun:getaddrinfo
}
{
   <insert_a_suppression_name_here>
   Memcheck:Leak
   match-leak-kinds: possible
   fun:calloc
   fun:_ZN4objc8DenseMapIP10objc_classS2_NS_17DenseMapValueInfoIS2_EENS_12DenseMapInfoIS2_EENS_6detail12DenseMapPairIS2_S2_EEE4growEj
   fun:_ZL16addRemappedClassP10objc_classS0_
   fun:_Z15allocateBucketsj
   fun:lookUpImpOrForward
   fun:nw_dictionary_create
   fun:nw_path_copy_interface_with_generation
   fun:nw_path_snapshot_path
   fun:nw_path_evaluator_evaluate
   fun:nw_path_create_evaluator_for_endpoint
   fun:nw_nat64_v4_address_requires_synthesis
   fun:_gai_nat64_v4_address_requires_synthesis
}
{
   <insert_a_suppression_name_here>
   Memcheck:Leak
   match-leak-kinds: definite
   fun:calloc
   fun:_ZN4objc8DenseMapIP10objc_classS2_NS_17DenseMapValueInfoIS2_EENS_12DenseMapInfoIS2_EENS_6detail12DenseMapPairIS2_S2_EEE4growEj
   fun:_ZN10objc_class11mangledNameEv
   fun:_ZN10objc_class11mangledNameEv
   fun:_ZN10objc_class11mangledNameEv
   fun:_ZNK8objc_opt17objc_stringhash_t8getIndexEPKc
   fun:unmap_image
   fun:_ZN4dyldL18notifyBatchPartialE17dyld_image_statesbPFPKcS0_jPK15dyld_image_infoEbb
   fun:_ZN4dyld21registerObjCNotifiersEPFvjPKPKcPKPK11mach_headerEPFvS1_S6_ESC_
   fun:_dyld_objc_notify_register
   fun:map_images_nolock
   fun:_os_object_init
}
{
   <insert_a_suppression_name_here>
   Memcheck:Leak
   match-leak-kinds: possible
   fun:calloc
   fun:_ZN4objc8DenseMapIP10objc_classS2_NS_17DenseMapValueInfoIS2_EENS_12DenseMapInfoIS2_EENS_6detail12DenseMapPairIS2_S2_EEE4growEj
   fun:_ZN10objc_class11mangledNameEv
   fun:_ZL16addRemappedClassP10objc_classS0_
   fun:objc_initializeClassPair
   fun:___NSSetupDispatchDataBridge_block_invoke
   fun:_dispatch_client_callout
   fun:_dispatch_once_callout
   fun:_NSSetupDispatchDataBridge
   fun:objc_msgLookup_fpret
   fun:_ZN4dyldL12notifySingleE17dyld_image_statesPK11ImageLoaderPNS1_21InitializerTimingListE
   fun:_ZN11ImageLoader23recursiveInitializationERKNS_11LinkContextEjPKcRNS_21InitializerTimingListERNS_15UninitedUpwardsE
}
{
   <insert_a_suppression_name_here>
   Memcheck:Leak
   match-leak-kinds: definite
   fun:calloc
   fun:_ZN4objc8DenseMapIP10objc_classS2_NS_17DenseMapValueInfoIS2_EENS_12DenseMapInfoIS2_EENS_6detail12DenseMapPairIS2_S2_EEE4growEj
   fun:_ZL16addRemappedClassP10objc_classS0_
   fun:objc_initializeClassPair
   fun:CFArrayCreate
   obj:/System/Library/Frameworks/CoreFoundation.framework/Versions/A/CoreFoundation
   fun:_ZN16ImageLoaderMachO11doImageInitERKN11ImageLoader11LinkContextE
   fun:_ZN16ImageLoaderMachO16doInitializationERKN11ImageLoader11LinkContextE
   fun:_ZN11ImageLoader23recursiveInitializationERKNS_11LinkContextEjPKcRNS_21InitializerTimingListERNS_15UninitedUpwardsE
   fun:_ZN11ImageLoader23recursiveInitializationERKNS_11LinkContextEjPKcRNS_21InitializerTimingListERNS_15UninitedUpwardsE
   fun:_ZN11ImageLoader23recursiveInitializationERKNS_11LinkContextEjPKcRNS_21InitializerTimingListERNS_15UninitedUpwardsE
   fun:_ZN11ImageLoader23recursiveInitializationERKNS_11LinkContextEjPKcRNS_21InitializerTimingListERNS_15UninitedUpwardsE
}
{
   <insert_a_suppression_name_here>
   Memcheck:Cond
   fun:nw_path_snapshot_path
   fun:nw_path_evaluator_evaluate
   fun:nw_path_create_evaluator_for_endpoint
   fun:nw_nat64_v4_address_requires_synthesis
   fun:_gai_nat64_v4_address_requires_synthesis
   fun:_gai_nat64_second_pass
   fun:si_addrinfo
   fun:_getaddrinfo_internal
   fun:getaddrinfo
   fun:Curl_getaddrinfo_ex
   fun:getaddrinfo_thread
   fun:curl_thread_create_thunk
}
{
   <insert_a_suppression_name_here>
   Memcheck:Leak
   match-leak-kinds: definite
   fun:calloc
   fun:_ZN4objc8DenseMapIP10objc_classS2_NS_17DenseMapValueInfoIS2_EENS_12DenseMapInfoIS2_EENS_6detail12DenseMapPairIS2_S2_EEE4growEj
   fun:_ZL16addRemappedClassP10objc_classS0_
   fun:_Z15allocateBucketsj
   fun:lookUpImpOrForward
   fun:__CFStringCreateImmutableFunnel3
   obj:/System/Library/Frameworks/CoreFoundation.framework/Versions/A/CoreFoundation
   fun:_ZN16ImageLoaderMachO11doImageInitERKN11ImageLoader11LinkContextE
   fun:_ZN16ImageLoaderMachO16doInitializationERKN11ImageLoader11LinkContextE
   fun:_ZN11ImageLoader23recursiveInitializationERKNS_11LinkContextEjPKcRNS_21InitializerTimingListERNS_15UninitedUpwardsE
   fun:_ZN11ImageLoader23recursiveInitializationERKNS_11LinkContextEjPKcRNS_21InitializerTimingListERNS_15UninitedUpwardsE
   fun:_ZN11ImageLoader23recursiveInitializationERKNS_11LinkContextEjPKcRNS_21InitializerTimingListERNS_15UninitedUpwardsE
}
{
   <insert_a_suppression_name_here>
   Memcheck:Leak
   match-leak-kinds: possible
   fun:calloc
   fun:_ZN4objc8DenseMapIP10objc_classS2_NS_17DenseMapValueInfoIS2_EENS_12DenseMapInfoIS2_EENS_6detail12DenseMapPairIS2_S2_EEE4growEj
   fun:_ZL16addRemappedClassP10objc_classS0_
   fun:_Z15allocateBucketsj
   fun:lookUpImpOrForward
   fun:nw_path_create
   fun:nw_path_evaluator_evaluate
   fun:nw_path_create_evaluator_for_endpoint
   fun:nw_nat64_v4_address_requires_synthesis
   fun:_gai_nat64_v4_address_requires_synthesis
   fun:_gai_nat64_second_pass
   fun:si_addrinfo
}
{
   <insert_a_suppression_name_here>
   Memcheck:Leak
   match-leak-kinds: definite
   fun:calloc
   fun:_ZN4objc8DenseMapIP10objc_classS2_NS_17DenseMapValueInfoIS2_EENS_12DenseMapInfoIS2_EENS_6detail12DenseMapPairIS2_S2_EEE4growEj
   fun:_ZN10objc_class11mangledNameEv
   fun:_ZN10objc_class11mangledNameEv
   fun:_ZL16addRemappedClassP10objc_classS0_
   fun:objc_initializeClassPair
   fun:CFArrayCreate
   obj:/System/Library/Frameworks/CoreFoundation.framework/Versions/A/CoreFoundation
   fun:_ZN16ImageLoaderMachO11doImageInitERKN11ImageLoader11LinkContextE
   fun:_ZN16ImageLoaderMachO16doInitializationERKN11ImageLoader11LinkContextE
   fun:_ZN11ImageLoader23recursiveInitializationERKNS_11LinkContextEjPKcRNS_21InitializerTimingListERNS_15UninitedUpwardsE
   fun:_ZN11ImageLoader23recursiveInitializationERKNS_11LinkContextEjPKcRNS_21InitializerTimingListERNS_15UninitedUpwardsE
}
{
   <insert_a_suppression_name_here>
   Memcheck:Leak
   match-leak-kinds: definite
   fun:calloc
   fun:_ZN4objc8DenseMapIP10objc_classS2_NS_17DenseMapValueInfoIS2_EENS_12DenseMapInfoIS2_EENS_6detail12DenseMapPairIS2_S2_EEE4growEj
   fun:_ZN10objc_class11mangledNameEv
   fun:_ZN10objc_class11mangledNameEv
   fun:_ZL16addRemappedClassP10objc_classS0_
   fun:objc_initializeClassPair
   fun:objc_registerClassPair
   fun:__CFInitialize
   obj:/System/Library/Frameworks/CoreFoundation.framework/Versions/A/CoreFoundation
   fun:_ZN16ImageLoaderMachO11doImageInitERKN11ImageLoader11LinkContextE
   fun:_ZN16ImageLoaderMachO16doInitializationERKN11ImageLoader11LinkContextE
   fun:_ZN11ImageLoader23recursiveInitializationERKNS_11LinkContextEjPKcRNS_21InitializerTimingListERNS_15UninitedUpwardsE
}
{
   <insert_a_suppression_name_here>
   Memcheck:Leak
   match-leak-kinds: definite
   fun:calloc
   fun:_ZN4objc8DenseMapIP10objc_classS2_NS_17DenseMapValueInfoIS2_EENS_12DenseMapInfoIS2_EENS_6detail12DenseMapPairIS2_S2_EEE4growEj
   fun:_ZN10objc_class11mangledNameEv
   fun:_ZN10objc_class11mangledNameEv
   fun:_ZL16addRemappedClassP10objc_classS0_
   fun:objc_initializeClassPair
   obj:/System/Library/Frameworks/CoreFoundation.framework/Versions/A/CoreFoundation
   fun:_ZN16ImageLoaderMachO11doImageInitERKN11ImageLoader11LinkContextE
   fun:_ZN16ImageLoaderMachO16doInitializationERKN11ImageLoader11LinkContextE
   fun:_ZN11ImageLoader23recursiveInitializationERKNS_11LinkContextEjPKcRNS_21InitializerTimingListERNS_15UninitedUpwardsE
   fun:_ZN11ImageLoader23recursiveInitializationERKNS_11LinkContextEjPKcRNS_21InitializerTimingListERNS_15UninitedUpwardsE
   fun:_ZN11ImageLoader23recursiveInitializationERKNS_11LinkContextEjPKcRNS_21InitializerTimingListERNS_15UninitedUpwardsE
}
{
   <insert_a_suppression_name_here>
   Memcheck:Leak
   match-leak-kinds: possible
   fun:calloc
   fun:_ZN4objc8DenseMapIP10objc_classS2_NS_17DenseMapValueInfoIS2_EENS_12DenseMapInfoIS2_EENS_6detail12DenseMapPairIS2_S2_EEE4growEj
   fun:_ZL16addRemappedClassP10objc_classS0_
   fun:_ZL24realizeClassWithoutSwiftP10objc_classS0_
   fun:-[NSObject dealloc]
   fun:lookUpImpOrForward
   fun:-[NSThread init]
   fun:____NSThreads_block_invoke
   fun:_dispatch_client_callout
   fun:_dispatch_once_callout
   fun:_NSThreadGet0
   fun:_NSInitializePlatform
}
{
   <insert_a_suppression_name_here>
   Memcheck:Leak
   match-leak-kinds: possible
   fun:calloc
   fun:_notify_fork_child
   fun:notify_register_check
   fun:si_inet_config
   fun:_mdns_search_ex
   fun:_mdns_search
   fun:mdns_addrinfo
   fun:search_addrinfo
   fun:si_addrinfo
   fun:_getaddrinfo_internal
   fun:getaddrinfo
   fun:Curl_getaddrinfo_ex
}
{
   <insert_a_suppression_name_here>
   Memcheck:Leak
   match-leak-kinds: definite
   fun:calloc
   fun:_ZN4objc8DenseMapIP10objc_classS2_NS_17DenseMapValueInfoIS2_EENS_12DenseMapInfoIS2_EENS_6detail12DenseMapPairIS2_S2_EEE4growEj
   fun:_ZN10objc_class11mangledNameEv
   fun:_ZN10objc_class11mangledNameEv
   fun:_ZN10objc_class11mangledNameEv
   fun:_ZL16addRemappedClassP10objc_classS0_
   fun:objc_initializeClassPair
   fun:objc_registerClassPair
   fun:__CFInitialize
   obj:/System/Library/Frameworks/CoreFoundation.framework/Versions/A/CoreFoundation
   fun:_ZN16ImageLoaderMachO11doImageInitERKN11ImageLoader11LinkContextE
   fun:_ZN16ImageLoaderMachO16doInitializationERKN11ImageLoader11LinkContextE
}
{
   <insert_a_suppression_name_here>
   Memcheck:Leak
   match-leak-kinds: possible
   fun:calloc
   fun:_ZN4objc8DenseMapIP10objc_classS2_NS_17DenseMapValueInfoIS2_EENS_12DenseMapInfoIS2_EENS_6detail12DenseMapPairIS2_S2_EEE4growEj
   fun:_ZL16addRemappedClassP10objc_classS0_
   fun:_Z15allocateBucketsj
   fun:lookUpImpOrForward
   fun:nw_array_create
   fun:nw_path_parse_necp_result
   fun:nw_path_evaluator_evaluate
   fun:nw_path_create_evaluator_for_endpoint
   fun:nw_nat64_v4_address_requires_synthesis
   fun:_gai_nat64_v4_address_requires_synthesis
   fun:_gai_nat64_second_pass
}
{
   <insert_a_suppression_name_here>
   Memcheck:Leak
   match-leak-kinds: possible
   fun:calloc
   fun:_ZN4objc8DenseMapIP10objc_classS2_NS_17DenseMapValueInfoIS2_EENS_12DenseMapInfoIS2_EENS_6detail12DenseMapPairIS2_S2_EEE4growEj
   fun:_ZL16addRemappedClassP10objc_classS0_
   fun:_Z15allocateBucketsj
   fun:lookUpImpOrForward
   fun:-[NWConcrete_nw_parameters initWithStack:]
   fun:nw_path_create_evaluator_for_endpoint
   fun:nw_nat64_v4_address_requires_synthesis
   fun:_gai_nat64_v4_address_requires_synthesis
   fun:_gai_nat64_second_pass
   fun:si_addrinfo
   fun:_getaddrinfo_internal
}
{
   <insert_a_suppression_name_here>
   Memcheck:Leak
   match-leak-kinds: definite
   fun:calloc
   fun:_ZN4objc8DenseMapIP10objc_classS2_NS_17DenseMapValueInfoIS2_EENS_12DenseMapInfoIS2_EENS_6detail12DenseMapPairIS2_S2_EEE4growEj
   fun:_ZL16addRemappedClassP10objc_classS0_
   fun:objc_initializeClassPair
   obj:/System/Library/Frameworks/CoreFoundation.framework/Versions/A/CoreFoundation
   fun:_ZN16ImageLoaderMachO11doImageInitERKN11ImageLoader11LinkContextE
   fun:_ZN16ImageLoaderMachO16doInitializationERKN11ImageLoader11LinkContextE
   fun:_ZN11ImageLoader23recursiveInitializationERKNS_11LinkContextEjPKcRNS_21InitializerTimingListERNS_15UninitedUpwardsE
   fun:_ZN11ImageLoader23recursiveInitializationERKNS_11LinkContextEjPKcRNS_21InitializerTimingListERNS_15UninitedUpwardsE
   fun:_ZN11ImageLoader23recursiveInitializationERKNS_11LinkContextEjPKcRNS_21InitializerTimingListERNS_15UninitedUpwardsE
   fun:_ZN11ImageLoader23recursiveInitializationERKNS_11LinkContextEjPKcRNS_21InitializerTimingListERNS_15UninitedUpwardsE
   fun:_ZN11ImageLoader23recursiveInitializationERKNS_11LinkContextEjPKcRNS_21InitializerTimingListERNS_15UninitedUpwardsE
}
{
   <insert_a_suppression_name_here>
   Memcheck:Cond
   fun:_platform_strcmp
   fun:is_config_agent_type_proxy
   fun:nw_path_snapshot_path
   fun:nw_path_evaluator_evaluate
   fun:nw_path_create_evaluator_for_endpoint
   fun:nw_nat64_v4_address_requires_synthesis
   fun:_gai_nat64_v4_address_requires_synthesis
   fun:_gai_nat64_second_pass
   fun:si_addrinfo
   fun:_getaddrinfo_internal
   fun:getaddrinfo
   fun:Curl_getaddrinfo_ex
}
{
   <insert_a_suppression_name_here>
   Memcheck:Leak
   match-leak-kinds: definite
   fun:calloc
   fun:_ZN4objc8DenseMapIP10objc_classS2_NS_17DenseMapValueInfoIS2_EENS_12DenseMapInfoIS2_EENS_6detail12DenseMapPairIS2_S2_EEE4growEj
   fun:_ZL16addRemappedClassP10objc_classS0_
   fun:_ZL24realizeClassWithoutSwiftP10objc_classS0_
   fun:-[NSObject dealloc]
   fun:lookUpImpOrForward
   fun:__CFMakeNSBlockClasses
   fun:-[NSThread init]
   fun:____NSThreads_block_invoke
   fun:_dispatch_client_callout
   fun:_dispatch_once_callout
   fun:_NSThreadGet0
}
{
   <insert_a_suppression_name_here>
   Memcheck:Cond
   fun:_platform_memmove$VARIANT$Haswell
   fun:xpc_data_create
   fun:xpc_dictionary_set_data
   fun:nw_network_agent_copy_dictionary_from_necp
   fun:nw_path_copy_dictionary_for_agent_with_generation
   fun:nw_path_snapshot_path
   fun:nw_path_evaluator_evaluate
   fun:nw_path_create_evaluator_for_endpoint
   fun:nw_nat64_v4_address_requires_synthesis
   fun:_gai_nat64_v4_address_requires_synthesis
   fun:_gai_nat64_second_pass
   fun:si_addrinfo
}
{
   <insert_a_suppression_name_here>
   Memcheck:Leak
   match-leak-kinds: definite
   fun:calloc
   fun:_ZL13getClass_implPKc
   fun:_ZN11objc_object27sidetable_clearDeallocatingEv
   fun:_ZL19_finishInitializingP10objc_classS0_
   fun:lookUpImpOrForward
   fun:__CFMakeNSBlockClasses
   fun:-[NSThread init]
   fun:____NSThreads_block_invoke
   fun:_dispatch_client_callout
   fun:_dispatch_once_callout
   fun:_NSThreadGet0
   fun:_NSInitializePlatform
}
{
   <insert_a_suppression_name_here>
   Memcheck:Leak
   match-leak-kinds: definite
   fun:calloc
   fun:_ZN4objc8DenseMapIP10objc_classS2_NS_17DenseMapValueInfoIS2_EENS_12DenseMapInfoIS2_EENS_6detail12DenseMapPairIS2_S2_EEE4growEj
   fun:_ZN10objc_class11mangledNameEv
   fun:_ZL16addRemappedClassP10objc_classS0_
   fun:objc_initializeClassPair
   fun:____FoundationPresent_block_invoke
   obj:/System/Library/Frameworks/CoreFoundation.framework/Versions/A/CoreFoundation
   fun:_ZN16ImageLoaderMachO11doImageInitERKN11ImageLoader11LinkContextE
   fun:_ZN16ImageLoaderMachO16doInitializationERKN11ImageLoader11LinkContextE
   fun:_ZN11ImageLoader23recursiveInitializationERKNS_11LinkContextEjPKcRNS_21InitializerTimingListERNS_15UninitedUpwardsE
   fun:_ZN11ImageLoader23recursiveInitializationERKNS_11LinkContextEjPKcRNS_21InitializerTimingListERNS_15UninitedUpwardsE
   fun:_ZN11ImageLoader23recursiveInitializationERKNS_11LinkContextEjPKcRNS_21InitializerTimingListERNS_15UninitedUpwardsE
}
{
   <insert_a_suppression_name_here>
   Memcheck:Leak
   match-leak-kinds: possible
   fun:calloc
   fun:_ZN4objc8DenseMapIP10objc_classS2_NS_17DenseMapValueInfoIS2_EENS_12DenseMapInfoIS2_EENS_6detail12DenseMapPairIS2_S2_EEE4growEj
   fun:_ZL16addRemappedClassP10objc_classS0_
   fun:_ZL24realizeClassWithoutSwiftP10objc_classS0_
   fun:-[NSObject dealloc]
   fun:lookUpImpOrForward
   fun:nw_endpoint_create_address
   fun:nw_nat64_v4_address_requires_synthesis
   fun:_gai_nat64_v4_address_requires_synthesis
   fun:_gai_nat64_second_pass
   fun:si_addrinfo
   fun:_getaddrinfo_internal
}
{
   <insert_a_suppression_name_here>
   Memcheck:Leak
   match-leak-kinds: definite
   fun:calloc
   fun:objc_msgSend_stret
   fun:__CFStringCreateImmutableFunnel3
   fun:__CFStringCreateImmutableFunnel3
   obj:/System/Library/Frameworks/CoreFoundation.framework/Versions/A/CoreFoundation
   fun:_ZN16ImageLoaderMachO11doImageInitERKN11ImageLoader11LinkContextE
   fun:_ZN16ImageLoaderMachO16doInitializationERKN11ImageLoader11LinkContextE
   fun:_ZN11ImageLoader23recursiveInitializationERKNS_11LinkContextEjPKcRNS_21InitializerTimingListERNS_15UninitedUpwardsE
   fun:_ZN11ImageLoader23recursiveInitializationERKNS_11LinkContextEjPKcRNS_21InitializerTimingListERNS_15UninitedUpwardsE
   fun:_ZN11ImageLoader23recursiveInitializationERKNS_11LinkContextEjPKcRNS_21InitializerTimingListERNS_15UninitedUpwardsE
   fun:_ZN11ImageLoader23recursiveInitializationERKNS_11LinkContextEjPKcRNS_21InitializerTimingListERNS_15UninitedUpwardsE
   fun:_ZN11ImageLoader23recursiveInitializationERKNS_11LinkContextEjPKcRNS_21InitializerTimingListERNS_15UninitedUpwardsE
}
{
   <insert_a_suppression_name_here>
   Memcheck:Leak
   match-leak-kinds: definite
   fun:calloc
   fun:_ZN4objc8DenseMapIP10objc_classS2_NS_17DenseMapValueInfoIS2_EENS_12DenseMapInfoIS2_EENS_6detail12DenseMapPairIS2_S2_EEE4growEj
   fun:_ZNK8objc_opt17objc_stringhash_t8getIndexEPKc
   fun:unmap_image
   fun:_ZN4dyldL18notifyBatchPartialE17dyld_image_statesbPFPKcS0_jPK15dyld_image_infoEbb
   fun:_ZN4dyld21registerObjCNotifiersEPFvjPKPKcPKPK11mach_headerEPFvS1_S6_ESC_
   fun:_dyld_objc_notify_register
   fun:map_images_nolock
   fun:_os_object_init
   fun:libdispatch_init
   fun:libSystem_initializer
   fun:_ZN16ImageLoaderMachO18doModInitFunctionsERKN11ImageLoader11LinkContextE
}
{
   <insert_a_suppression_name_here>
   Memcheck:Leak
   match-leak-kinds: possible
   fun:calloc
   fun:_ZL18cache_collect_freeP8bucket_tj
   fun:+[NSObject new]
   fun:+[NSArray allocWithZone:]
   obj:/System/Library/Frameworks/CoreFoundation.framework/Versions/A/CoreFoundation
   fun:_ZN16ImageLoaderMachO11doImageInitERKN11ImageLoader11LinkContextE
   fun:_ZN16ImageLoaderMachO16doInitializationERKN11ImageLoader11LinkContextE
   fun:_ZN11ImageLoader23recursiveInitializationERKNS_11LinkContextEjPKcRNS_21InitializerTimingListERNS_15UninitedUpwardsE
   fun:_ZN11ImageLoader23recursiveInitializationERKNS_11LinkContextEjPKcRNS_21InitializerTimingListERNS_15UninitedUpwardsE
   fun:_ZN11ImageLoader23recursiveInitializationERKNS_11LinkContextEjPKcRNS_21InitializerTimingListERNS_15UninitedUpwardsE
   fun:_ZN11ImageLoader23recursiveInitializationERKNS_11LinkContextEjPKcRNS_21InitializerTimingListERNS_15UninitedUpwardsE
   fun:_ZN11ImageLoader23recursiveInitializationERKNS_11LinkContextEjPKcRNS_21InitializerTimingListERNS_15UninitedUpwardsE
}
{
   <insert_a_suppression_name_here>
   Memcheck:Cond
   fun:__nw_path_get_nexus_agent_block_invoke
   fun:_xpc_dictionary_apply_apply
   fun:_xpc_dictionary_apply_node_f
   fun:xpc_dictionary_apply
   fun:nw_path_get_nexus_agent
   fun:nw_path_network_is_satisfied_update_reason
   fun:nw_path_get_interface_index
   fun:__nw_path_snapshot_fallback_block_invoke
   fun:_xpc_dictionary_apply_apply
   fun:_xpc_dictionary_apply_node_f
   fun:xpc_dictionary_apply
   fun:nw_path_snapshot_fallback
}
{
   <insert_a_suppression_name_here>
   Memcheck:Leak
   match-leak-kinds: possible
   fun:calloc
   fun:_notify_fork_child
   fun:notify_register_check
   fun:_os_trace_prefs_and_mode_refresh_slow
   fun:_os_activity_create_addr
   fun:ds_user_byuid
   fun:si_user_byuid
   fun:search_item_bynumber
   fun:search_user_byuid
   fun:si_user_byuid
   fun:getpwuid_r
   obj:/System/Library/Frameworks/CoreFoundation.framework/Versions/A/CoreFoundation
}
{
   <insert_a_suppression_name_here>
   Memcheck:Leak
   match-leak-kinds: possible
   fun:calloc
   fun:_ZN4objc8DenseMapIP10objc_classS2_NS_17DenseMapValueInfoIS2_EENS_12DenseMapInfoIS2_EENS_6detail12DenseMapPairIS2_S2_EEE4growEj
   fun:_ZN10objc_class11mangledNameEv
   fun:_ZL16addRemappedClassP10objc_classS0_
   fun:_ZL24realizeClassWithoutSwiftP10objc_classS0_
   fun:-[NSObject dealloc]
   fun:lookUpImpOrForward
   fun:nw_endpoint_create_address
   fun:nw_nat64_v4_address_requires_synthesis
   fun:_gai_nat64_v4_address_requires_synthesis
   fun:_gai_nat64_second_pass
   fun:si_addrinfo
}
{
   <insert_a_suppression_name_here>
   Memcheck:Leak
   match-leak-kinds: possible
   fun:calloc
   fun:_notify_fork_child
   fun:notify_register_check
   fun:__si_module_static_ds_block_invoke
   fun:_dispatch_client_callout
   fun:_dispatch_once_callout
   fun:si_module_static_ds
   fun:si_module_with_name
   fun:si_module_config_modules_for_category
   fun:__si_module_static_search_block_invoke
   fun:_dispatch_client_callout
   fun:_dispatch_once_callout
}
{
   <insert_a_suppression_name_here>
   Memcheck:Leak
   match-leak-kinds: possible
   fun:calloc
   fun:_ZN4objc8DenseMapIP10objc_classS2_NS_17DenseMapValueInfoIS2_EENS_12DenseMapInfoIS2_EENS_6detail12DenseMapPairIS2_S2_EEE4growEj
   fun:_ZL16addRemappedClassP10objc_classS0_
   fun:_ZL24realizeClassWithoutSwiftP10objc_classS0_
   fun:-[NSObject dealloc]
   fun:lookUpImpOrForward
   fun:nw_path_create
   fun:nw_path_evaluator_evaluate
   fun:nw_path_create_evaluator_for_endpoint
   fun:nw_nat64_v4_address_requires_synthesis
   fun:_gai_nat64_v4_address_requires_synthesis
   fun:_gai_nat64_second_pass
}
{
   <insert_a_suppression_name_here>
   Memcheck:Leak
   match-leak-kinds: possible
   fun:calloc
   fun:_notify_fork_child
   fun:notify_register_check
   fun:notify_register_tz
   fun:gmt_init
   fun:__pthread_once_handler
   fun:_os_once_callout
   fun:pthread_once
   fun:gmtsub
   fun:time2sub
   fun:time2
   fun:_st_time1
}
{
   <insert_a_suppression_name_here>
   Memcheck:Leak
   match-leak-kinds: possible
   fun:calloc
   fun:_notify_fork_child
   fun:_notify_fork_child
   fun:notify_register_check
   fun:notify_register_tz
   fun:gmt_init
   fun:__pthread_once_handler
   fun:_os_once_callout
   fun:pthread_once
   fun:gmtsub
   fun:time2sub
   fun:time2
}
{
   <insert_a_suppression_name_here>
   Memcheck:Leak
   match-leak-kinds: possible
   fun:malloc
   fun:strdup
   fun:notify_monitor_file
   fun:notify_register_tz
   fun:gmt_init
   fun:__pthread_once_handler
   fun:_os_once_callout
   fun:pthread_once
   fun:gmtsub
   fun:time2sub
   fun:time2
   fun:_st_time1
}
{
   <insert_a_suppression_name_here>
   Memcheck:Leak
   match-leak-kinds: possible
   fun:malloc
   fun:_notify_fork_child
   fun:_notify_fork_child
   fun:notify_register_check
   fun:notify_register_tz
   fun:gmt_init
   fun:__pthread_once_handler
   fun:_os_once_callout
   fun:pthread_once
   fun:gmtsub
   fun:time2sub
   fun:time2
}
